; Function Attrs: mustprogress uwtable
define noundef i32 @_ZNK8proxygen11HTTPMessage16getIntQueryParamERKNSt7__cxx1112basic_stringIcSt11char_traitsIcESaIcEEEi(ptr noundef nonnull align 8 dereferenceable(616) %this, ptr noundef nonnull align 8 dereferenceable(32) %name, i32 noundef %defval) local_unnamed_addr #2 align 2 personality ptr @__gxx_personality_v0 {
entry:
  %call.i2 = invoke noundef nonnull align 8 dereferenceable(32) ptr @_ZNK8proxygen11HTTPMessage13getQueryParamERKNSt7__cxx1112basic_stringIcSt11char_traitsIcESaIcEEE(ptr noundef nonnull align 8 dereferenceable(616) %this, ptr noundef nonnull align 8 dereferenceable(32) %name)
          to label %call.i.noexc unwind label %lpad

call.i.noexc:                                     ; preds = %entry
  %call.i.i = tail call noundef ptr @_ZNKSt7__cxx1112basic_stringIcSt11char_traitsIcESaIcEE4dataEv(ptr noundef nonnull align 8 dereferenceable(32) %call.i2) #23
  %call1.i.i = tail call noundef i64 @_ZNKSt7__cxx1112basic_stringIcSt11char_traitsIcESaIcEE4sizeEv(ptr noundef nonnull align 8 dereferenceable(32) %call.i2) #23
  %add.ptr.i.i.i = getelementptr inbounds i8, ptr %call.i.i, i64 %call1.i.i
  %call2.i.i3 = invoke noundef i32 @_ZN5folly2toIiEENSt9enable_ifIXntsr3std7is_sameINS_5RangeIPKcEET_EE5valueES6_E4typeES5_(ptr %call.i.i, ptr %add.ptr.i.i.i)
          to label %return unwind label %lpad

lpad:                                             ; preds = %call.i.noexc, %entry
  %0 = landingpad { ptr, i32 }
          catch ptr @_ZTISt9exception
  %1 = extractvalue { ptr, i32 } %0, 1
  %2 = tail call i32 @llvm.eh.typeid.for(ptr nonnull @_ZTISt9exception) #23
  %matches = icmp eq i32 %1, %2
  br i1 %matches, label %catch, label %eh.resume

catch:                                            ; preds = %lpad
  %3 = extractvalue { ptr, i32 } %0, 0
  %4 = tail call ptr @__cxa_begin_catch(ptr %3) #23
  tail call void @__cxa_end_catch()
  br label %return

return:                                           ; preds = %call.i.noexc, %catch
  %retval.0 = phi i32 [ %defval, %catch ], [ %call2.i.i3, %call.i.noexc ]
  ret i32 %retval.0

eh.resume:                                        ; preds = %lpad
  resume { ptr, i32 } %0
}